Certificate:
    Data:
        Version: 3 (0x2)
        Serial Number: 2 (0x2)
        Signature Algorithm: sha1WithRSAEncryption
        Issuer: C=RU, ST=MOSKVA, L=MSK, O=MOTHER RYSSIA, OU=KGB, CN=PUTIN/emailAddress=PUTIN@RUSSIA.RU
        Validity
            Not Before: May 10 10:48:16 2017 GMT
            Not After : May  8 10:48:16 2027 GMT
        Subject: C=RU, ST=RU, L=MOSKVA, O=KGB, OU=PUTIN, CN=client1/emailAddress=client1@russia.ru
        Subject Public Key Info:
            Public Key Algorithm: rsaEncryption
            RSA Public Key: (1024 bit)
                Modulus (1024 bit):
                    00:a0:d3:d8:de:a5:a1:52:73:23:2a:19:06:29:62:
                    bc:55:48:94:03:1a:4f:b7:b3:c8:4c:9a:d0:6a:22:
                    e6:1d:cd:3f:c1:38:be:06:2d:30:f9:f8:3b:f2:5a:
                    00:7a:e0:1c:2e:c4:97:c3:3e:c3:89:ad:d2:b3:33:
                    db:68:4b:57:dd:ed:7d:01:9a:aa:98:26:ec:de:76:
                    76:ea:42:8f:82:3e:4a:7f:b3:8a:bf:9a:e8:1c:67:
                    5a:ae:66:7a:b4:25:a2:1f:29:cc:d8:2c:ce:a4:0f:
                    cb:5a:73:15:79:16:f6:48:7b:44:e6:e4:7c:8b:3b:
                    0e:ae:bb:2c:0b:25:9a:af:d3
                Exponent: 65537 (0x10001)
        X509v3 extensions:
            X509v3 Basic Constraints: 
                CA:FALSE
            Netscape Comment: 
                Easy-RSA Generated Certificate
            X509v3 Subject Key Identifier: 
                99:AB:AC:54:70:2E:F5:6A:60:04:A1:29:C1:9D:DF:A3:86:12:DE:91
            X509v3 Authority Key Identifier: 
                keyid:E2:A6:D7:6D:F4:DD:86:BD:35:D5:ED:F7:A0:4D:F4:FF:F1:A1:EF:6F
                DirName:/C=RU/ST=MOSKVA/L=MSK/O=MOTHER RYSSIA/OU=KGB/CN=PUTIN/emailAddress=PUTIN@RUSSIA.RU
                serial:9D:B7:A6:09:E6:FA:EA:95

            X509v3 Extended Key Usage: 
                TLS Web Client Authentication
            X509v3 Key Usage: 
                Digital Signature
    Signature Algorithm: sha1WithRSAEncryption
        33:39:05:bf:24:9a:c7:2b:5b:91:8c:18:6e:e4:d4:5a:e5:25:
        9d:a3:19:9f:4c:d5:7d:08:d7:be:f6:36:f1:b5:91:b1:66:52:
        f1:d9:73:0b:5f:01:91:28:cf:25:fd:3e:38:26:3e:1f:29:91:
        82:4f:b9:e8:16:f1:e3:eb:c3:61:0e:b5:9c:d6:c4:d1:cb:64:
        21:3d:46:a4:0e:07:b9:a4:60:27:0a:b9:85:6c:a8:23:02:fd:
        f3:87:ef:8b:9c:17:53:27:d5:c7:d5:80:cf:10:5f:cd:f1:41:
        7a:4a:ac:68:f2:e0:c6:98:38:50:ac:82:f9:db:aa:5d:76:bb:
        89:49
-----BEGIN CERTIFICATE-----
MIIDsTCCAxqgAwIBAgIBAjANBgkqhkiG9w0BAQUFADCBgjELMAkGA1UEBhMCUlUx
DzANBgNVBAgTBk1PU0tWQTEMMAoGA1UEBxMDTVNLMRYwFAYDVQQKEw1NT1RIRVIg
UllTU0lBMQwwCgYDVQQLEwNLR0IxDjAMBgNVBAMTBVBVVElOMR4wHAYJKoZIhvcN
AQkBFg9QVVRJTkBSVVNTSUEuUlUwHhcNMTcwNTEwMTA0ODE2WhcNMjcwNTA4MTA0
ODE2WjB9MQswCQYDVQQGEwJSVTELMAkGA1UECBMCUlUxDzANBgNVBAcTBk1PU0tW
QTEMMAoGA1UEChMDS0dCMQ4wDAYDVQQLEwVQVVRJTjEQMA4GA1UEAxMHY2xpZW50
MTEgMB4GCSqGSIb3DQEJARYRY2xpZW50MUBydXNzaWEucnUwgZ8wDQYJKoZIhvcN
AQEBBQADgY0AMIGJAoGBAKDT2N6loVJzIyoZBilivFVIlAMaT7ezyEya0Goi5h3N
P8E4vgYtMPn4O/JaAHrgHC7El8M+w4mt0rMz22hLV93tfQGaqpgm7N52dupCj4I+
Sn+zir+a6BxnWq5merQloh8pzNgszqQPy1pzFXkW9kh7RObkfIs7Dq67LAslmq/T
AgMBAAGjggE5MIIBNTAJBgNVHRMEAjAAMC0GCWCGSAGG+EIBDQQgFh5FYXN5LVJT
QSBHZW5lcmF0ZWQgQ2VydGlmaWNhdGUwHQYDVR0OBBYEFJmrrFRwLvVqYAShKcGd
36OGEt6RMIG3BgNVHSMEga8wgayAFOKm12303Ya9NdXt96BN9P/xoe9voYGIpIGF
MIGCMQswCQYDVQQGEwJSVTEPMA0GA1UECBMGTU9TS1ZBMQwwCgYDVQQHEwNNU0sx
FjAUBgNVBAoTDU1PVEhFUiBSWVNTSUExDDAKBgNVBAsTA0tHQjEOMAwGA1UEAxMF
UFVUSU4xHjAcBgkqhkiG9w0BCQEWD1BVVElOQFJVU1NJQS5SVYIJAJ23pgnm+uqV
MBMGA1UdJQQMMAoGCCsGAQUFBwMCMAsGA1UdDwQEAwIHgDANBgkqhkiG9w0BAQUF
AAOBgQAzOQW/JJrHK1uRjBhu5NRa5SWdoxmfTNV9CNe+9jbxtZGxZlLx2XMLXwGR
KM8l/T44Jj4fKZGCT7noFvHj68NhDrWc1sTRy2QhPUakDge5pGAnCrmFbKgjAv3z
h++LnBdTJ9XH1YDPEF/N8UF6Sqxo8uDGmDhQrIL526pddruJSQ==
-----END CERTIFICATE-----
